target datalayout = "e-m:e-p270:32:32-p271:32:32-p272:64:64-i64:64-i128:128-f80:128-n8:16:32:64-S128"
target triple = "x86_64-pc-linux-gnu"

%struct._zend_compiler_globals = type { %struct._zend_stack, ptr, ptr, i32, ptr, ptr, ptr, ptr, i8, i8, i8, i8, i8, %struct._zend_llist, ptr, i8, i8, i8, i8, ptr, i32, i32, %struct._zend_oparray_context, %struct._zend_file_context, ptr, %struct._zend_array, ptr, i64, i8, i8, i8, ptr, ptr, %struct._zend_stack, ptr, i32, ptr, ptr, i64, i64, ptr, ptr, ptr, ptr, i32, %struct._zend_stack }
%struct._zend_llist = type { ptr, ptr, i64, i64, ptr, i8, ptr }
%struct._zend_oparray_context = type { i32, i32, i32, i32, i32, i32, i32, ptr, ptr, i8 }
%struct._zend_file_context = type { %struct._zend_declarables, ptr, i8, i8, ptr, ptr, ptr, %struct._zend_array }
%struct._zend_declarables = type { i64 }
%struct._zend_array = type { %struct._zend_refcounted_h, %union.anon.0, i32, %union.anon.1, i32, i32, i32, i32, i64, ptr }
%struct._zend_refcounted_h = type { i32, %union.anon }
%union.anon = type { i32 }
%union.anon.0 = type { i32 }
%union.anon.1 = type { ptr }
%struct._zend_stack = type { i32, i32, i32, ptr }
%struct._zval_struct = type { %union._zend_value, %union.anon.3, %union.anon.6 }
%union._zend_value = type { i64 }
%union.anon.3 = type { i32 }
%union.anon.6 = type { i32 }
%struct._zend_op_array = type { i8, [3 x i8], i32, ptr, ptr, ptr, i32, i32, ptr, ptr, ptr, ptr, i32, i32, i32, i32, ptr, ptr, ptr, ptr, ptr, i32, i32, ptr, ptr, ptr, i32, i32, i32, i32, ptr, ptr, [6 x ptr] }
%struct._zend_string = type { %struct._zend_refcounted_h, i64, i64, [1 x i8] }
%struct._zend_ast_zval = type { i16, i16, %struct._zval_struct }
%struct._zend_ast = type { i16, i16, i32, [1 x ptr] }
%struct._zend_label = type { i32, i32 }

@compiler_globals = global %struct._zend_compiler_globals zeroinitializer, align 8
@.str.230 = private unnamed_addr constant [27 x i8] c"Label '%s' already defined\00", align 1

; Function Attrs: nounwind uwtable
define internal void @zend_compile_label(ptr noundef %0) #0 {
  %2 = alloca ptr, align 8
  %3 = alloca ptr, align 8
  %4 = alloca ptr, align 8
  %5 = alloca i32, align 4
  %6 = alloca ptr, align 8
  %7 = alloca ptr, align 8
  %8 = alloca ptr, align 8
  %9 = alloca ptr, align 8
  %10 = alloca i64, align 8
  %11 = alloca %struct._zval_struct, align 8
  %12 = alloca ptr, align 8
  %13 = alloca ptr, align 8
  %14 = alloca ptr, align 8
  %15 = alloca %struct._zend_label, align 4
  store ptr %0, ptr %13, align 8
  %16 = load ptr, ptr %13, align 8
  %17 = getelementptr inbounds %struct._zend_ast, ptr %16, i32 0, i32 3
  %18 = getelementptr inbounds [1 x ptr], ptr %17, i64 0, i64 0
  %19 = load ptr, ptr %18, align 8
  store ptr %19, ptr %3, align 8
  %20 = load ptr, ptr %3, align 8
  store ptr %20, ptr %2, align 8
  %21 = load ptr, ptr %2, align 8
  %22 = load i16, ptr %21, align 8
  %23 = zext i16 %22 to i32
  %24 = icmp eq i32 %23, 64
  call void @llvm.assume(i1 %24)
  %25 = load ptr, ptr %2, align 8
  %26 = getelementptr inbounds %struct._zend_ast_zval, ptr %25, i32 0, i32 2
  store ptr %26, ptr %4, align 8
  %27 = load ptr, ptr %4, align 8
  %28 = load ptr, ptr %27, align 8
  store ptr %28, ptr %14, align 8
  %29 = load ptr, ptr getelementptr inbounds (%struct._zend_compiler_globals, ptr @compiler_globals, i32 0, i32 22, i32 8), align 8
  %30 = icmp ne ptr %29, null
  br i1 %30, label %34, label %31

31:                                               ; preds = %1
  %32 = call noalias ptr @_emalloc_56()
  store ptr %32, ptr getelementptr inbounds (%struct._zend_compiler_globals, ptr @compiler_globals, i32 0, i32 22, i32 8), align 8
  %33 = load ptr, ptr getelementptr inbounds (%struct._zend_compiler_globals, ptr @compiler_globals, i32 0, i32 22, i32 8), align 8
  call void @_zend_hash_init(ptr noundef %33, i32 noundef 8, ptr noundef @label_ptr_dtor, i1 noundef zeroext false)
  br label %34

34:                                               ; preds = %31, %1
  %35 = load i32, ptr getelementptr inbounds (%struct._zend_compiler_globals, ptr @compiler_globals, i32 0, i32 22, i32 5), align 4
  %36 = getelementptr inbounds %struct._zend_label, ptr %15, i32 0, i32 0
  store i32 %35, ptr %36, align 4
  %37 = load ptr, ptr getelementptr inbounds (%struct._zend_compiler_globals, ptr @compiler_globals, i32 0, i32 4), align 8
  %38 = getelementptr inbounds %struct._zend_op_array, ptr %37, i32 0, i32 15
  %39 = load i32, ptr %38, align 4
  %40 = getelementptr inbounds %struct._zend_label, ptr %15, i32 0, i32 1
  store i32 %39, ptr %40, align 4
  %41 = load ptr, ptr getelementptr inbounds (%struct._zend_compiler_globals, ptr @compiler_globals, i32 0, i32 22, i32 8), align 8
  %42 = load ptr, ptr %14, align 8
  store ptr %41, ptr %7, align 8
  store ptr %42, ptr %8, align 8
  store ptr %15, ptr %9, align 8
  store i64 8, ptr %10, align 8
  store ptr null, ptr %11, align 8
  %43 = getelementptr inbounds %struct._zval_struct, ptr %11, i32 0, i32 1
  store i32 13, ptr %43, align 8
  %44 = load ptr, ptr %7, align 8
  %45 = load ptr, ptr %8, align 8
  %46 = call ptr @zend_hash_add(ptr noundef %44, ptr noundef %45, ptr noundef %11) #15
  store ptr %46, ptr %12, align 8
  %47 = icmp ne ptr %46, null
  br i1 %47, label %48, label %297

48:                                               ; preds = %34
  %49 = load ptr, ptr %7, align 8
  %50 = getelementptr inbounds %struct._zend_refcounted_h, ptr %49, i32 0, i32 1
  %51 = load i32, ptr %50, align 4
  store i32 %51, ptr %5, align 4
  %52 = load i32, ptr %5, align 4
  %53 = and i32 %52, 1008
  %54 = and i32 %53, 128
  %55 = icmp ne i32 %54, 0
  br i1 %55, label %56, label %59

56:                                               ; preds = %48
  %57 = load i64, ptr %10, align 8
  %58 = call noalias ptr @__zend_malloc(i64 noundef %57) #16
  br label %288

59:                                               ; preds = %48
  %60 = load i64, ptr %10, align 8
  %61 = call i1 @llvm.is.constant.i64(i64 %60)
  br i1 %61, label %62, label %283

62:                                               ; preds = %59
  %63 = load i64, ptr %10, align 8
  %64 = icmp ule i64 %63, 8
  br i1 %64, label %65, label %67

65:                                               ; preds = %62
  %66 = call noalias ptr @_emalloc_8() #15
  br label %281

67:                                               ; preds = %62
  %68 = load i64, ptr %10, align 8
  %69 = icmp ule i64 %68, 16
  br i1 %69, label %70, label %72

70:                                               ; preds = %67
  %71 = call noalias ptr @_emalloc_16() #15
  br label %279

72:                                               ; preds = %67
  %73 = load i64, ptr %10, align 8
  %74 = icmp ule i64 %73, 24
  br i1 %74, label %75, label %77

75:                                               ; preds = %72
  %76 = call noalias ptr @_emalloc_24() #15
  br label %277

77:                                               ; preds = %72
  %78 = load i64, ptr %10, align 8
  %79 = icmp ule i64 %78, 32
  br i1 %79, label %80, label %82

80:                                               ; preds = %77
  %81 = call noalias ptr @_emalloc_32() #15
  br label %275

82:                                               ; preds = %77
  %83 = load i64, ptr %10, align 8
  %84 = icmp ule i64 %83, 40
  br i1 %84, label %85, label %87

85:                                               ; preds = %82
  %86 = call noalias ptr @_emalloc_40() #15
  br label %273

87:                                               ; preds = %82
  %88 = load i64, ptr %10, align 8
  %89 = icmp ule i64 %88, 48
  br i1 %89, label %90, label %92

90:                                               ; preds = %87
  %91 = call noalias ptr @_emalloc_48() #15
  br label %271

92:                                               ; preds = %87
  %93 = load i64, ptr %10, align 8
  %94 = icmp ule i64 %93, 56
  br i1 %94, label %95, label %97

95:                                               ; preds = %92
  %96 = call noalias ptr @_emalloc_56() #15
  br label %269

97:                                               ; preds = %92
  %98 = load i64, ptr %10, align 8
  %99 = icmp ule i64 %98, 64
  br i1 %99, label %100, label %102

100:                                              ; preds = %97
  %101 = call noalias ptr @_emalloc_64() #15
  br label %267

102:                                              ; preds = %97
  %103 = load i64, ptr %10, align 8
  %104 = icmp ule i64 %103, 80
  br i1 %104, label %105, label %107

105:                                              ; preds = %102
  %106 = call noalias ptr @_emalloc_80() #15
  br label %265

107:                                              ; preds = %102
  %108 = load i64, ptr %10, align 8
  %109 = icmp ule i64 %108, 96
  br i1 %109, label %110, label %112

110:                                              ; preds = %107
  %111 = call noalias ptr @_emalloc_96() #15
  br label %263

112:                                              ; preds = %107
  %113 = load i64, ptr %10, align 8
  %114 = icmp ule i64 %113, 112
  br i1 %114, label %115, label %117

115:                                              ; preds = %112
  %116 = call noalias ptr @_emalloc_112() #15
  br label %261

117:                                              ; preds = %112
  %118 = load i64, ptr %10, align 8
  %119 = icmp ule i64 %118, 128
  br i1 %119, label %120, label %122

120:                                              ; preds = %117
  %121 = call noalias ptr @_emalloc_128() #15
  br label %259

122:                                              ; preds = %117
  %123 = load i64, ptr %10, align 8
  %124 = icmp ule i64 %123, 160
  br i1 %124, label %125, label %127

125:                                              ; preds = %122
  %126 = call noalias ptr @_emalloc_160() #15
  br label %257

127:                                              ; preds = %122
  %128 = load i64, ptr %10, align 8
  %129 = icmp ule i64 %128, 192
  br i1 %129, label %130, label %132

130:                                              ; preds = %127
  %131 = call noalias ptr @_emalloc_192() #15
  br label %255

132:                                              ; preds = %127
  %133 = load i64, ptr %10, align 8
  %134 = icmp ule i64 %133, 224
  br i1 %134, label %135, label %137

135:                                              ; preds = %132
  %136 = call noalias ptr @_emalloc_224() #15
  br label %253

137:                                              ; preds = %132
  %138 = load i64, ptr %10, align 8
  %139 = icmp ule i64 %138, 256
  br i1 %139, label %140, label %142

140:                                              ; preds = %137
  %141 = call noalias ptr @_emalloc_256() #15
  br label %251

142:                                              ; preds = %137
  %143 = load i64, ptr %10, align 8
  %144 = icmp ule i64 %143, 320
  br i1 %144, label %145, label %147

145:                                              ; preds = %142
  %146 = call noalias ptr @_emalloc_320() #15
  br label %249

147:                                              ; preds = %142
  %148 = load i64, ptr %10, align 8
  %149 = icmp ule i64 %148, 384
  br i1 %149, label %150, label %152

150:                                              ; preds = %147
  %151 = call noalias ptr @_emalloc_384() #15
  br label %247

152:                                              ; preds = %147
  %153 = load i64, ptr %10, align 8
  %154 = icmp ule i64 %153, 448
  br i1 %154, label %155, label %157

155:                                              ; preds = %152
  %156 = call noalias ptr @_emalloc_448() #15
  br label %245

157:                                              ; preds = %152
  %158 = load i64, ptr %10, align 8
  %159 = icmp ule i64 %158, 512
  br i1 %159, label %160, label %162

160:                                              ; preds = %157
  %161 = call noalias ptr @_emalloc_512() #15
  br label %243

162:                                              ; preds = %157
  %163 = load i64, ptr %10, align 8
  %164 = icmp ule i64 %163, 640
  br i1 %164, label %165, label %167

165:                                              ; preds = %162
  %166 = call noalias ptr @_emalloc_640() #15
  br label %241

167:                                              ; preds = %162
  %168 = load i64, ptr %10, align 8
  %169 = icmp ule i64 %168, 768
  br i1 %169, label %170, label %172

170:                                              ; preds = %167
  %171 = call noalias ptr @_emalloc_768() #15
  br label %239

172:                                              ; preds = %167
  %173 = load i64, ptr %10, align 8
  %174 = icmp ule i64 %173, 896
  br i1 %174, label %175, label %177

175:                                              ; preds = %172
  %176 = call noalias ptr @_emalloc_896() #15
  br label %237

177:                                              ; preds = %172
  %178 = load i64, ptr %10, align 8
  %179 = icmp ule i64 %178, 1024
  br i1 %179, label %180, label %182

180:                                              ; preds = %177
  %181 = call noalias ptr @_emalloc_1024() #15
  br label %235

182:                                              ; preds = %177
  %183 = load i64, ptr %10, align 8
  %184 = icmp ule i64 %183, 1280
  br i1 %184, label %185, label %187

185:                                              ; preds = %182
  %186 = call noalias ptr @_emalloc_1280() #15
  br label %233

187:                                              ; preds = %182
  %188 = load i64, ptr %10, align 8
  %189 = icmp ule i64 %188, 1536
  br i1 %189, label %190, label %192

190:                                              ; preds = %187
  %191 = call noalias ptr @_emalloc_1536() #15
  br label %231

192:                                              ; preds = %187
  %193 = load i64, ptr %10, align 8
  %194 = icmp ule i64 %193, 1792
  br i1 %194, label %195, label %197

195:                                              ; preds = %192
  %196 = call noalias ptr @_emalloc_1792() #15
  br label %229

197:                                              ; preds = %192
  %198 = load i64, ptr %10, align 8
  %199 = icmp ule i64 %198, 2048
  br i1 %199, label %200, label %202

200:                                              ; preds = %197
  %201 = call noalias ptr @_emalloc_2048() #15
  br label %227

202:                                              ; preds = %197
  %203 = load i64, ptr %10, align 8
  %204 = icmp ule i64 %203, 2560
  br i1 %204, label %205, label %207

205:                                              ; preds = %202
  %206 = call noalias ptr @_emalloc_2560() #15
  br label %225

207:                                              ; preds = %202
  %208 = load i64, ptr %10, align 8
  %209 = icmp ule i64 %208, 3072
  br i1 %209, label %210, label %212

210:                                              ; preds = %207
  %211 = call noalias ptr @_emalloc_3072() #15
  br label %223

212:                                              ; preds = %207
  %213 = load i64, ptr %10, align 8
  %214 = icmp ule i64 %213, 2093056
  br i1 %214, label %215, label %218

215:                                              ; preds = %212
  %216 = load i64, ptr %10, align 8
  %217 = call noalias ptr @_emalloc_large(i64 noundef %216) #16
  br label %221

218:                                              ; preds = %212
  %219 = load i64, ptr %10, align 8
  %220 = call noalias ptr @_emalloc_huge(i64 noundef %219) #16
  br label %221

221:                                              ; preds = %218, %215
  %222 = phi ptr [ %217, %215 ], [ %220, %218 ]
  br label %223

223:                                              ; preds = %221, %210
  %224 = phi ptr [ %211, %210 ], [ %222, %221 ]
  br label %225

225:                                              ; preds = %223, %205
  %226 = phi ptr [ %206, %205 ], [ %224, %223 ]
  br label %227

227:                                              ; preds = %225, %200
  %228 = phi ptr [ %201, %200 ], [ %226, %225 ]
  br label %229

229:                                              ; preds = %227, %195
  %230 = phi ptr [ %196, %195 ], [ %228, %227 ]
  br label %231

231:                                              ; preds = %229, %190
  %232 = phi ptr [ %191, %190 ], [ %230, %229 ]
  br label %233

233:                                              ; preds = %231, %185
  %234 = phi ptr [ %186, %185 ], [ %232, %231 ]
  br label %235

235:                                              ; preds = %233, %180
  %236 = phi ptr [ %181, %180 ], [ %234, %233 ]
  br label %237

237:                                              ; preds = %235, %175
  %238 = phi ptr [ %176, %175 ], [ %236, %235 ]
  br label %239

239:                                              ; preds = %237, %170
  %240 = phi ptr [ %171, %170 ], [ %238, %237 ]
  br label %241

241:                                              ; preds = %239, %165
  %242 = phi ptr [ %166, %165 ], [ %240, %239 ]
  br label %243

243:                                              ; preds = %241, %160
  %244 = phi ptr [ %161, %160 ], [ %242, %241 ]
  br label %245

245:                                              ; preds = %243, %155
  %246 = phi ptr [ %156, %155 ], [ %244, %243 ]
  br label %247

247:                                              ; preds = %245, %150
  %248 = phi ptr [ %151, %150 ], [ %246, %245 ]
  br label %249

249:                                              ; preds = %247, %145
  %250 = phi ptr [ %146, %145 ], [ %248, %247 ]
  br label %251

251:                                              ; preds = %249, %140
  %252 = phi ptr [ %141, %140 ], [ %250, %249 ]
  br label %253

253:                                              ; preds = %251, %135
  %254 = phi ptr [ %136, %135 ], [ %252, %251 ]
  br label %255

255:                                              ; preds = %253, %130
  %256 = phi ptr [ %131, %130 ], [ %254, %253 ]
  br label %257

257:                                              ; preds = %255, %125
  %258 = phi ptr [ %126, %125 ], [ %256, %255 ]
  br label %259

259:                                              ; preds = %257, %120
  %260 = phi ptr [ %121, %120 ], [ %258, %257 ]
  br label %261

261:                                              ; preds = %259, %115
  %262 = phi ptr [ %116, %115 ], [ %260, %259 ]
  br label %263

263:                                              ; preds = %261, %110
  %264 = phi ptr [ %111, %110 ], [ %262, %261 ]
  br label %265

265:                                              ; preds = %263, %105
  %266 = phi ptr [ %106, %105 ], [ %264, %263 ]
  br label %267

267:                                              ; preds = %265, %100
  %268 = phi ptr [ %101, %100 ], [ %266, %265 ]
  br label %269

269:                                              ; preds = %267, %95
  %270 = phi ptr [ %96, %95 ], [ %268, %267 ]
  br label %271

271:                                              ; preds = %269, %90
  %272 = phi ptr [ %91, %90 ], [ %270, %269 ]
  br label %273

273:                                              ; preds = %271, %85
  %274 = phi ptr [ %86, %85 ], [ %272, %271 ]
  br label %275

275:                                              ; preds = %273, %80
  %276 = phi ptr [ %81, %80 ], [ %274, %273 ]
  br label %277

277:                                              ; preds = %275, %75
  %278 = phi ptr [ %76, %75 ], [ %276, %275 ]
  br label %279

279:                                              ; preds = %277, %70
  %280 = phi ptr [ %71, %70 ], [ %278, %277 ]
  br label %281

281:                                              ; preds = %279, %65
  %282 = phi ptr [ %66, %65 ], [ %280, %279 ]
  br label %286

283:                                              ; preds = %59
  %284 = load i64, ptr %10, align 8
  %285 = call noalias ptr @_emalloc(i64 noundef %284) #16
  br label %286

286:                                              ; preds = %283, %281
  %287 = phi ptr [ %282, %281 ], [ %285, %283 ]
  br label %288

288:                                              ; preds = %286, %56
  %289 = phi ptr [ %58, %56 ], [ %287, %286 ]
  %290 = load ptr, ptr %12, align 8
  store ptr %289, ptr %290, align 8
  %291 = load ptr, ptr %12, align 8
  %292 = load ptr, ptr %291, align 8
  %293 = load ptr, ptr %9, align 8
  %294 = load i64, ptr %10, align 8
  call void @llvm.memcpy.p0.p0.i64(ptr align 1 %292, ptr align 1 %293, i64 %294, i1 false)
  %295 = load ptr, ptr %12, align 8
  %296 = load ptr, ptr %295, align 8
  store ptr %296, ptr %6, align 8
  br label %298

297:                                              ; preds = %34
  store ptr null, ptr %6, align 8
  br label %298

298:                                              ; preds = %297, %288
  %299 = load ptr, ptr %6, align 8
  %300 = icmp ne ptr %299, null
  br i1 %300, label %305, label %301

301:                                              ; preds = %298
  %302 = load ptr, ptr %14, align 8
  %303 = getelementptr inbounds %struct._zend_string, ptr %302, i32 0, i32 3
  %304 = getelementptr inbounds [1 x i8], ptr %303, i64 0, i64 0
  call void (i32, ptr, ...) @zend_error_noreturn(i32 noundef 64, ptr noundef @.str.230, ptr noundef %304) #14
  unreachable

305:                                              ; preds = %298
  ret void
}