; Function Attrs: nounwind uwtable
define internal fastcc void @zend_compile_label(i16 %.8.val.0.val, ptr %.8.val.8.val) unnamed_addr #0 {
  %1 = alloca %struct._zval_struct, align 8
  %2 = icmp eq i16 %.8.val.0.val, 64
  tail call void @llvm.assume(i1 %2)
  %3 = load ptr, ptr getelementptr inbounds (%struct._zend_compiler_globals, ptr @compiler_globals, i64 0, i32 22, i32 8), align 8
  %.not = icmp eq ptr %3, null
  br i1 %.not, label %4, label %6

4:                                                ; preds = %0
  %5 = tail call noalias ptr @_emalloc_56() #30
  store ptr %5, ptr getelementptr inbounds (%struct._zend_compiler_globals, ptr @compiler_globals, i64 0, i32 22, i32 8), align 8
  tail call void @_zend_hash_init(ptr noundef %5, i32 noundef 8, ptr noundef nonnull @label_ptr_dtor, i1 noundef zeroext false) #30
  %.pre = load ptr, ptr getelementptr inbounds (%struct._zend_compiler_globals, ptr @compiler_globals, i64 0, i32 22, i32 8), align 8
  br label %6

6:                                                ; preds = %4, %0
  %7 = phi ptr [ %.pre, %4 ], [ %3, %0 ]
  %8 = load i32, ptr getelementptr inbounds (%struct._zend_compiler_globals, ptr @compiler_globals, i64 0, i32 22, i32 5), align 4
  %9 = load ptr, ptr getelementptr inbounds (%struct._zend_compiler_globals, ptr @compiler_globals, i64 0, i32 4), align 8
  %10 = getelementptr inbounds i8, ptr %9, i64 84
  %11 = load i32, ptr %10, align 4
  store ptr null, ptr %1, align 8
  %12 = getelementptr inbounds i8, ptr %1, i64 8
  store i32 13, ptr %12, align 8
  %13 = call ptr @zend_hash_add(ptr noundef %7, ptr noundef %.8.val.8.val, ptr noundef nonnull %1) #30
  %.not53 = icmp eq ptr %13, null
  br i1 %.not53, label %.critedge, label %14

14:                                               ; preds = %6
  %15 = getelementptr inbounds i8, ptr %7, i64 4
  %16 = load i32, ptr %15, align 4
  %17 = and i32 %16, 128
  %.not54 = icmp eq i32 %17, 0
  br i1 %.not54, label %20, label %18

18:                                               ; preds = %14
  %19 = call noalias dereferenceable_or_null(8) ptr @__zend_malloc(i64 noundef 8) #32
  br label %23

20:                                               ; preds = %14
  %21 = call noalias ptr @_emalloc_8() #30
  br label %23

.critedge:                                        ; preds = %6
  %22 = getelementptr inbounds i8, ptr %.8.val.8.val, i64 24
  call void (i32, ptr, ...) @zend_error_noreturn(i32 noundef 64, ptr noundef nonnull @.str.230, ptr noundef nonnull %22) #31
  unreachable

23:                                               ; preds = %18, %20
  %24 = phi ptr [ %19, %18 ], [ %21, %20 ]
  store ptr %24, ptr %13, align 8
  store i32 %8, ptr %24, align 1
  %.sroa.2.0..sroa_idx = getelementptr inbounds i8, ptr %24, i64 4
  store i32 %11, ptr %.sroa.2.0..sroa_idx, align 1
  ret void
}